target datalayout = "e-m:e-p270:32:32-p271:32:32-p272:64:64-i64:64-i128:128-f80:128-n8:16:32:64-S128"
target triple = "x86_64-pc-linux-gnu"

%struct.code = type { i8, i8, i16 }
%struct.z_stream_s = type { ptr, i32, i64, ptr, i32, i64, ptr, ptr, ptr, ptr, ptr, i32, i64, i64 }
%struct.inflate_state = type { i32, i32, i32, i32, i32, i32, i64, i64, ptr, i32, i32, i32, i32, ptr, i64, i32, i32, i32, i32, ptr, ptr, i32, i32, i32, i32, i32, i32, ptr, [320 x i16], [288 x i16], [1444 x %struct.code], i32, i32, i32 }

; Function Attrs: nounwind uwtable
define i32 @inflateEnd(ptr noundef %0) #0 {
  %2 = alloca i32, align 4
  %3 = alloca ptr, align 8
  %4 = alloca ptr, align 8
  %5 = alloca i32, align 4
  store ptr %0, ptr %3, align 8, !tbaa !3
  call void @llvm.lifetime.start.p0(i64 8, ptr %4) #4
  %6 = load ptr, ptr %3, align 8, !tbaa !3
  %7 = icmp eq ptr %6, null
  br i1 %7, label %18, label %8

8:                                                ; preds = %1
  %9 = load ptr, ptr %3, align 8, !tbaa !3
  %10 = getelementptr inbounds nuw %struct.z_stream_s, ptr %9, i32 0, i32 7
  %11 = load ptr, ptr %10, align 8, !tbaa !8
  %12 = icmp eq ptr %11, null
  br i1 %12, label %18, label %13

13:                                               ; preds = %8
  %14 = load ptr, ptr %3, align 8, !tbaa !3
  %15 = getelementptr inbounds nuw %struct.z_stream_s, ptr %14, i32 0, i32 9
  %16 = load ptr, ptr %15, align 8, !tbaa !41
  %17 = icmp eq ptr %16, null
  br i1 %17, label %18, label %19

18:                                               ; preds = %13, %8, %1
  store i32 -2, ptr %2, align 4
  store i32 1, ptr %5, align 4
  br label %49

19:                                               ; preds = %13
  %20 = load ptr, ptr %3, align 8, !tbaa !3
  %21 = getelementptr inbounds nuw %struct.z_stream_s, ptr %20, i32 0, i32 7
  %22 = load ptr, ptr %21, align 8, !tbaa !8
  store ptr %22, ptr %4, align 8, !tbaa !14
  %23 = load ptr, ptr %4, align 8, !tbaa !14
  %24 = getelementptr inbounds nuw %struct.inflate_state, ptr %23, i32 0, i32 13
  %25 = load ptr, ptr %24, align 8, !tbaa !39
  %26 = icmp ne ptr %25, null
  br i1 %26, label %27, label %37

27:                                               ; preds = %19
  %28 = load ptr, ptr %3, align 8, !tbaa !3
  %29 = getelementptr inbounds nuw %struct.z_stream_s, ptr %28, i32 0, i32 9
  %30 = load ptr, ptr %29, align 8, !tbaa !41
  %31 = load ptr, ptr %3, align 8, !tbaa !3
  %32 = getelementptr inbounds nuw %struct.z_stream_s, ptr %31, i32 0, i32 10
  %33 = load ptr, ptr %32, align 8, !tbaa !42
  %34 = load ptr, ptr %4, align 8, !tbaa !14
  %35 = getelementptr inbounds nuw %struct.inflate_state, ptr %34, i32 0, i32 13
  %36 = load ptr, ptr %35, align 8, !tbaa !39
  call void %30(ptr noundef %33, ptr noundef %36)
  br label %37

37:                                               ; preds = %27, %19
  %38 = load ptr, ptr %3, align 8, !tbaa !3
  %39 = getelementptr inbounds nuw %struct.z_stream_s, ptr %38, i32 0, i32 9
  %40 = load ptr, ptr %39, align 8, !tbaa !41
  %41 = load ptr, ptr %3, align 8, !tbaa !3
  %42 = getelementptr inbounds nuw %struct.z_stream_s, ptr %41, i32 0, i32 10
  %43 = load ptr, ptr %42, align 8, !tbaa !42
  %44 = load ptr, ptr %3, align 8, !tbaa !3
  %45 = getelementptr inbounds nuw %struct.z_stream_s, ptr %44, i32 0, i32 7
  %46 = load ptr, ptr %45, align 8, !tbaa !8
  call void %40(ptr noundef %43, ptr noundef %46)
  %47 = load ptr, ptr %3, align 8, !tbaa !3
  %48 = getelementptr inbounds nuw %struct.z_stream_s, ptr %47, i32 0, i32 7
  store ptr null, ptr %48, align 8, !tbaa !8
  store i32 0, ptr %2, align 4
  store i32 1, ptr %5, align 4
  br label %49

49:                                               ; preds = %37, %18
  call void @llvm.lifetime.end.p0(i64 8, ptr %4) #4
  %50 = load i32, ptr %2, align 4
  ret i32 %50
}